; Function Attrs: mustprogress nofree norecurse nosync nounwind willreturn memory(argmem: readwrite) uwtable
define hidden void @_ZN6Assimp3IFC8TempMesh4SwapERS1_(ptr noundef nonnull align 8 captures(none) dereferenceable(48) %0, ptr noundef nonnull align 8 captures(none) dereferenceable(48) %1) local_unnamed_addr #5 align 2 personality ptr @__gxx_personality_v0 {
  %3 = getelementptr inbounds nuw i8, ptr %0, i64 24
  %4 = getelementptr inbounds nuw i8, ptr %1, i64 24
  %5 = load ptr, ptr %3, align 8
  %6 = getelementptr inbounds nuw i8, ptr %0, i64 32
  %7 = load ptr, ptr %6, align 8
  %8 = getelementptr inbounds nuw i8, ptr %0, i64 40
  %9 = load ptr, ptr %8, align 8
  %10 = load ptr, ptr %4, align 8
  store ptr %10, ptr %3, align 8
  %11 = getelementptr inbounds nuw i8, ptr %1, i64 32
  %12 = load ptr, ptr %11, align 8
  store ptr %12, ptr %6, align 8
  %13 = getelementptr inbounds nuw i8, ptr %1, i64 40
  %14 = load ptr, ptr %13, align 8
  store ptr %14, ptr %8, align 8
  store ptr %5, ptr %4, align 8
  store ptr %7, ptr %11, align 8
  store ptr %9, ptr %13, align 8
  %15 = load ptr, ptr %0, align 8
  %16 = getelementptr inbounds nuw i8, ptr %0, i64 8
  %17 = load ptr, ptr %16, align 8
  %18 = getelementptr inbounds nuw i8, ptr %0, i64 16
  %19 = load ptr, ptr %18, align 8
  %20 = load ptr, ptr %1, align 8
  store ptr %20, ptr %0, align 8
  %21 = getelementptr inbounds nuw i8, ptr %1, i64 8
  %22 = load ptr, ptr %21, align 8
  store ptr %22, ptr %16, align 8
  %23 = getelementptr inbounds nuw i8, ptr %1, i64 16
  %24 = load ptr, ptr %23, align 8
  store ptr %24, ptr %18, align 8
  store ptr %15, ptr %1, align 8
  store ptr %17, ptr %21, align 8
  store ptr %19, ptr %23, align 8
  ret void
}